target datalayout = "e-m:e-p270:32:32-p271:32:32-p272:64:64-i64:64-i128:128-f80:128-n8:16:32:64-S128"
target triple = "x86_64-pc-linux-gnu"

%struct.callerid_conn_t = type { i32, i32, %struct.in6_addr, %struct.in6_addr, i32 }
%struct.in6_addr = type { %union.anon }
%union.anon = type { [4 x i32] }

@.str.15 = private unnamed_addr constant [21 x i8] c"_match_inode matched\00", align 1

; Function Attrs: nounwind uwtable
define internal i32 @_match_inode(ptr noundef %0, ptr noundef %1, ptr noundef %2, i64 noundef %3, i32 noundef %4) #0 {
  %6 = alloca i32, align 4
  %7 = alloca ptr, align 8
  %8 = alloca ptr, align 8
  %9 = alloca ptr, align 8
  %10 = alloca i64, align 8
  %11 = alloca i32, align 4
  store ptr %0, ptr %7, align 8
  store ptr %1, ptr %8, align 8
  store ptr %2, ptr %9, align 8
  store i64 %3, ptr %10, align 8
  store i32 %4, ptr %11, align 4
  %12 = load ptr, ptr %8, align 8
  %13 = load i64, ptr %12, align 8
  %14 = load i64, ptr %10, align 8
  %15 = icmp eq i64 %13, %14
  br i1 %15, label %16, label %46

16:                                               ; preds = %5
  %17 = load ptr, ptr %7, align 8
  %18 = getelementptr inbounds nuw %struct.callerid_conn_t, ptr %17, i32 0, i32 2
  %19 = load ptr, ptr %9, align 8
  %20 = getelementptr inbounds nuw %struct.callerid_conn_t, ptr %19, i32 0, i32 2
  call void @llvm.memcpy.p0.p0.i64(ptr align 4 %18, ptr align 4 %20, i64 16, i1 false)
  %21 = load ptr, ptr %7, align 8
  %22 = getelementptr inbounds nuw %struct.callerid_conn_t, ptr %21, i32 0, i32 3
  %23 = load ptr, ptr %9, align 8
  %24 = getelementptr inbounds nuw %struct.callerid_conn_t, ptr %23, i32 0, i32 3
  call void @llvm.memcpy.p0.p0.i64(ptr align 4 %22, ptr align 4 %24, i64 16, i1 false)
  %25 = load ptr, ptr %9, align 8
  %26 = getelementptr inbounds nuw %struct.callerid_conn_t, ptr %25, i32 0, i32 1
  %27 = load i32, ptr %26, align 4
  %28 = load ptr, ptr %7, align 8
  %29 = getelementptr inbounds nuw %struct.callerid_conn_t, ptr %28, i32 0, i32 1
  store i32 %27, ptr %29, align 4
  %30 = load ptr, ptr %9, align 8
  %31 = getelementptr inbounds nuw %struct.callerid_conn_t, ptr %30, i32 0, i32 0
  %32 = load i32, ptr %31, align 4
  %33 = load ptr, ptr %7, align 8
  %34 = getelementptr inbounds nuw %struct.callerid_conn_t, ptr %33, i32 0, i32 0
  store i32 %32, ptr %34, align 4
  %35 = load i32, ptr %11, align 4
  %36 = load ptr, ptr %7, align 8
  %37 = getelementptr inbounds nuw %struct.callerid_conn_t, ptr %36, i32 0, i32 4
  store i32 %35, ptr %37, align 4
  br label %38

38:                                               ; preds = %16
  br label %39

39:                                               ; preds = %38
  %40 = call i32 @get_log_level()
  %41 = icmp sge i32 %40, 7
  br i1 %41, label %42, label %43

42:                                               ; preds = %39
  call void (i32, ptr, ...) @log_var(i32 noundef 7, ptr noundef @.str.15)
  br label %43

43:                                               ; preds = %42, %39
  br label %44

44:                                               ; preds = %43
  br label %45

45:                                               ; preds = %44
  store i32 0, ptr %6, align 4
  br label %47

46:                                               ; preds = %5
  store i32 -1, ptr %6, align 4
  br label %47

47:                                               ; preds = %46, %45
  %48 = load i32, ptr %6, align 4
  ret i32 %48
}