; Function Attrs: nounwind uwtable
define internal range(i32 -1, 1) i32 @_match_inode(ptr noundef writeonly captures(none) %0, ptr noundef readonly captures(none) %1, ptr noundef readonly captures(none) %2, i64 noundef %3, i32 noundef %4) #0 {
  %6 = load i64, ptr %1, align 8
  %7 = icmp eq i64 %6, %3
  br i1 %7, label %8, label %21

8:                                                ; preds = %5
  %9 = getelementptr inbounds nuw i8, ptr %0, i64 8
  %10 = getelementptr inbounds nuw i8, ptr %2, i64 8
  tail call void @llvm.memcpy.p0.p0.i64(ptr noundef nonnull align 4 dereferenceable(16) %9, ptr noundef nonnull align 4 dereferenceable(16) %10, i64 16, i1 false)
  %11 = getelementptr inbounds nuw i8, ptr %0, i64 24
  %12 = getelementptr inbounds nuw i8, ptr %2, i64 24
  tail call void @llvm.memcpy.p0.p0.i64(ptr noundef nonnull align 4 dereferenceable(16) %11, ptr noundef nonnull align 4 dereferenceable(16) %12, i64 16, i1 false)
  %13 = getelementptr inbounds nuw i8, ptr %2, i64 4
  %14 = load i32, ptr %13, align 4
  %15 = getelementptr inbounds nuw i8, ptr %0, i64 4
  store i32 %14, ptr %15, align 4
  %16 = load i32, ptr %2, align 4
  store i32 %16, ptr %0, align 4
  %17 = getelementptr inbounds nuw i8, ptr %0, i64 40
  store i32 %4, ptr %17, align 4
  %18 = tail call i32 @get_log_level() #11
  %19 = icmp sgt i32 %18, 6
  br i1 %19, label %20, label %21

20:                                               ; preds = %8
  tail call void (i32, ptr, ...) @log_var(i32 noundef 7, ptr noundef nonnull @.str.15) #11
  br label %21

21:                                               ; preds = %5, %8, %20
  %.0 = phi i32 [ 0, %20 ], [ 0, %8 ], [ -1, %5 ]
  ret i32 %.0
}